target datalayout = "e-m:e-p270:32:32-p271:32:32-p272:64:64-i64:64-i128:128-f80:128-n8:16:32:64-S128"
target triple = "x86_64-pc-linux-gnu"

%struct.TimeResults = type { i32, i32 }
%"class.std::function" = type { %"class.std::_Function_base", ptr }
%"class.std::_Function_base" = type { %"union.std::_Any_data", ptr }
%"union.std::_Any_data" = type { %"union.std::_Nocopy_types" }
%"union.std::_Nocopy_types" = type { { i64, i64 } }
%struct.timespec = type { i64, i64 }

; Function Attrs: mustprogress nounwind uwtable
define linkonce_odr noundef zeroext i1 @_ZNKSt14_Function_base8_M_emptyEv(ptr noundef nonnull align 8 dereferenceable(24) %0) #2 comdat align 2 {
  %2 = alloca ptr, align 8
  store ptr %0, ptr %2, align 8, !tbaa !64
  %3 = load ptr, ptr %2, align 8
  %4 = getelementptr inbounds nuw %"class.std::_Function_base", ptr %3, i32 0, i32 1
  %5 = load ptr, ptr %4, align 8, !tbaa !63
  %6 = icmp ne ptr %5, null
  %7 = xor i1 %6, true
  ret i1 %7
}

; Function Attrs: mustprogress uwtable
define linkonce_odr noundef zeroext i1 @_ZNKSt8functionIFbvEEclEv(ptr noundef nonnull align 8 dereferenceable(32) %0) #0 comdat align 2 {
  %2 = alloca ptr, align 8
  store ptr %0, ptr %2, align 8, !tbaa !51
  %3 = load ptr, ptr %2, align 8
  %4 = call noundef zeroext i1 @_ZNKSt14_Function_base8_M_emptyEv(ptr noundef nonnull align 8 dereferenceable(24) %3)
  br i1 %4, label %5, label %6

5:                                                ; preds = %1
  call void @_ZSt25__throw_bad_function_callv() #17
  unreachable

6:                                                ; preds = %1
  %7 = getelementptr inbounds nuw %"class.std::function", ptr %3, i32 0, i32 1
  %8 = load ptr, ptr %7, align 8, !tbaa !60
  %9 = getelementptr inbounds nuw %"class.std::_Function_base", ptr %3, i32 0, i32 0
  %10 = call noundef zeroext i1 %8(ptr noundef nonnull align 8 dereferenceable(16) %9)
  ret i1 %10
}

; Function Attrs: mustprogress nounwind uwtable
define internal noundef i64 @_ZL8time_nowv() #2 {
  %1 = alloca %struct.timespec, align 8
  %2 = alloca i64, align 8
  call void @llvm.lifetime.start.p0(i64 16, ptr %1) #14
  %3 = call i32 @clock_gettime(i32 noundef 1, ptr noundef %1) #14
  call void @llvm.lifetime.start.p0(i64 8, ptr %2) #14
  %4 = getelementptr inbounds nuw %struct.timespec, ptr %1, i32 0, i32 0
  %5 = load i64, ptr %4, align 8, !tbaa !88
  store i64 %5, ptr %2, align 8, !tbaa !13
  %6 = load i64, ptr %2, align 8, !tbaa !13
  %7 = mul i64 %6, 1000000
  store i64 %7, ptr %2, align 8, !tbaa !13
  %8 = getelementptr inbounds nuw %struct.timespec, ptr %1, i32 0, i32 1
  %9 = load i64, ptr %8, align 8, !tbaa !90
  %10 = sdiv i64 %9, 1000
  %11 = load i64, ptr %2, align 8, !tbaa !13
  %12 = add i64 %11, %10
  store i64 %12, ptr %2, align 8, !tbaa !13
  %13 = load i64, ptr %2, align 8, !tbaa !13
  call void @llvm.lifetime.end.p0(i64 8, ptr %2) #14
  call void @llvm.lifetime.end.p0(i64 16, ptr %1) #14
  ret i64 %13
}

; Function Attrs: mustprogress uwtable
define internal noundef zeroext i1 @_ZL12TimeFunctionP11TimeResultsSt8functionIFbvEE(ptr noundef %0, ptr noundef %1) #0 {
  %3 = alloca i1, align 1
  %4 = alloca ptr, align 8
  %5 = alloca ptr, align 8
  %6 = alloca i64, align 8
  %7 = alloca i64, align 8
  %8 = alloca i64, align 8
  %9 = alloca i32, align 4
  %10 = alloca i32, align 4
  %11 = alloca i32, align 4
  %12 = alloca i32, align 4
  store ptr %0, ptr %4, align 8, !tbaa !49
  store ptr %1, ptr %5, align 8, !tbaa !51
  call void @llvm.lifetime.start.p0(i64 8, ptr %6) #14
  %13 = call noundef i64 @_ZL8time_nowv()
  store i64 %13, ptr %6, align 8, !tbaa !13
  call void @llvm.lifetime.start.p0(i64 8, ptr %7) #14
  call void @llvm.lifetime.start.p0(i64 8, ptr %8) #14
  call void @llvm.lifetime.start.p0(i64 4, ptr %9) #14
  store i32 0, ptr %9, align 4, !tbaa !33
  call void @llvm.lifetime.start.p0(i64 4, ptr %10) #14
  %14 = call noundef zeroext i1 @_ZNKSt8functionIFbvEEclEv(ptr noundef nonnull align 8 dereferenceable(32) %1)
  br i1 %14, label %16, label %15

15:                                               ; preds = %2
  store i1 false, ptr %3, align 1
  store i32 1, ptr %11, align 4
  br label %74

16:                                               ; preds = %2
  %17 = call noundef i64 @_ZL8time_nowv()
  store i64 %17, ptr %7, align 8, !tbaa !13
  %18 = load i64, ptr %7, align 8, !tbaa !13
  %19 = load i64, ptr %6, align 8, !tbaa !13
  %20 = sub i64 %18, %19
  store i64 %20, ptr %8, align 8, !tbaa !13
  %21 = load i64, ptr %8, align 8, !tbaa !13
  %22 = icmp eq i64 %21, 0
  br i1 %22, label %23, label %24

23:                                               ; preds = %16
  store i32 250, ptr %10, align 4, !tbaa !33
  br label %38

24:                                               ; preds = %16
  %25 = load i64, ptr %8, align 8, !tbaa !13
  %26 = uitofp i64 %25 to double
  %27 = fdiv double 1.000000e+05, %26
  %28 = fptoui double %27 to i32
  store i32 %28, ptr %10, align 4, !tbaa !33
  %29 = load i32, ptr %10, align 4, !tbaa !33
  %30 = icmp ugt i32 %29, 1000
  br i1 %30, label %31, label %32

31:                                               ; preds = %24
  store i32 1000, ptr %10, align 4, !tbaa !33
  br label %37

32:                                               ; preds = %24
  %33 = load i32, ptr %10, align 4, !tbaa !33
  %34 = icmp ult i32 %33, 1
  br i1 %34, label %35, label %36

35:                                               ; preds = %32
  store i32 1, ptr %10, align 4, !tbaa !33
  br label %36

36:                                               ; preds = %35, %32
  br label %37

37:                                               ; preds = %36, %31
  br label %38

38:                                               ; preds = %37, %23
  br label %39

39:                                               ; preds = %63, %38
  call void @llvm.lifetime.start.p0(i64 4, ptr %12) #14
  store i32 0, ptr %12, align 4, !tbaa !33
  br label %40

40:                                               ; preds = %51, %39
  %41 = load i32, ptr %12, align 4, !tbaa !33
  %42 = load i32, ptr %10, align 4, !tbaa !33
  %43 = icmp ult i32 %41, %42
  br i1 %43, label %45, label %44

44:                                               ; preds = %40
  store i32 4, ptr %11, align 4
  br label %54

45:                                               ; preds = %40
  %46 = call noundef zeroext i1 @_ZNKSt8functionIFbvEEclEv(ptr noundef nonnull align 8 dereferenceable(32) %1)
  br i1 %46, label %48, label %47

47:                                               ; preds = %45
  store i1 false, ptr %3, align 1
  store i32 1, ptr %11, align 4
  br label %54

48:                                               ; preds = %45
  %49 = load i32, ptr %9, align 4, !tbaa !33
  %50 = add i32 %49, 1
  store i32 %50, ptr %9, align 4, !tbaa !33
  br label %51

51:                                               ; preds = %48
  %52 = load i32, ptr %12, align 4, !tbaa !33
  %53 = add i32 %52, 1
  store i32 %53, ptr %12, align 4, !tbaa !33
  br label %40, !llvm.loop !53

54:                                               ; preds = %47, %44
  call void @llvm.lifetime.end.p0(i64 4, ptr %12) #14
  %55 = load i32, ptr %11, align 4
  switch i32 %55, label %74 [
    i32 4, label %56
  ]

56:                                               ; preds = %54
  %57 = call noundef i64 @_ZL8time_nowv()
  store i64 %57, ptr %7, align 8, !tbaa !13
  %58 = load i64, ptr %7, align 8, !tbaa !13
  %59 = load i64, ptr %6, align 8, !tbaa !13
  %60 = sub i64 %58, %59
  %61 = icmp ugt i64 %60, 1000000
  br i1 %61, label %62, label %63

62:                                               ; preds = %56
  br label %64

63:                                               ; preds = %56
  br label %39, !llvm.loop !55

64:                                               ; preds = %62
  %65 = load i64, ptr %7, align 8, !tbaa !13
  %66 = load i64, ptr %6, align 8, !tbaa !13
  %67 = sub i64 %65, %66
  %68 = trunc i64 %67 to i32
  %69 = load ptr, ptr %4, align 8, !tbaa !49
  %70 = getelementptr inbounds nuw %struct.TimeResults, ptr %69, i32 0, i32 1
  store i32 %68, ptr %70, align 4, !tbaa !56
  %71 = load i32, ptr %9, align 4, !tbaa !33
  %72 = load ptr, ptr %4, align 8, !tbaa !49
  %73 = getelementptr inbounds nuw %struct.TimeResults, ptr %72, i32 0, i32 0
  store i32 %71, ptr %73, align 4, !tbaa !58
  store i1 true, ptr %3, align 1
  store i32 1, ptr %11, align 4
  br label %74

74:                                               ; preds = %64, %54, %15
  call void @llvm.lifetime.end.p0(i64 4, ptr %10) #14
  call void @llvm.lifetime.end.p0(i64 4, ptr %9) #14
  call void @llvm.lifetime.end.p0(i64 8, ptr %8) #14
  call void @llvm.lifetime.end.p0(i64 8, ptr %7) #14
  call void @llvm.lifetime.end.p0(i64 8, ptr %6) #14
  %75 = load i1, ptr %3, align 1
  ret i1 %75
}