; Function Attrs: mustprogress uwtable
define internal fastcc noundef zeroext i1 @_ZL12TimeFunctionP11TimeResultsSt8functionIFbvEE(ptr noundef nonnull writeonly captures(none) %0, ptr noundef nonnull %1) unnamed_addr #0 {
  %3 = alloca %struct.timespec, align 8
  %4 = alloca %struct.timespec, align 8
  %5 = alloca %struct.timespec, align 8
  call void @llvm.lifetime.start.p0(i64 16, ptr nonnull %5) #19
  %6 = call i32 @clock_gettime(i32 noundef 1, ptr noundef nonnull %5) #19
  %7 = load i64, ptr %5, align 8, !tbaa !69
  %8 = mul i64 %7, 1000000
  %9 = getelementptr inbounds nuw i8, ptr %5, i64 8
  %10 = load i64, ptr %9, align 8, !tbaa !71
  %11 = sdiv i64 %10, 1000
  %12 = add i64 %11, %8
  call void @llvm.lifetime.end.p0(i64 16, ptr nonnull %5) #19
  %13 = getelementptr inbounds nuw i8, ptr %1, i64 16
  %14 = load ptr, ptr %13, align 8, !tbaa !35
  %.not.i.i = icmp eq ptr %14, null
  br i1 %.not.i.i, label %15, label %_ZNKSt8functionIFbvEEclEv.exit

15:                                               ; preds = %2
  call void @_ZSt25__throw_bad_function_callv() #24
  unreachable

_ZNKSt8functionIFbvEEclEv.exit:                   ; preds = %2
  %16 = getelementptr inbounds nuw i8, ptr %1, i64 24
  %17 = load ptr, ptr %16, align 8, !tbaa !32
  %18 = call noundef zeroext i1 %17(ptr noundef nonnull align 8 dereferenceable(32) %1)
  br i1 %18, label %19, label %.loopexit

19:                                               ; preds = %_ZNKSt8functionIFbvEEclEv.exit
  call void @llvm.lifetime.start.p0(i64 16, ptr nonnull %4) #19
  %20 = call i32 @clock_gettime(i32 noundef 1, ptr noundef nonnull %4) #19
  %21 = load i64, ptr %4, align 8, !tbaa !69
  %22 = mul i64 %21, 1000000
  %23 = getelementptr inbounds nuw i8, ptr %4, i64 8
  %24 = load i64, ptr %23, align 8, !tbaa !71
  %25 = sdiv i64 %24, 1000
  %26 = add i64 %25, %22
  call void @llvm.lifetime.end.p0(i64 16, ptr nonnull %4) #19
  %27 = icmp eq i64 %26, %12
  br i1 %27, label %35, label %28

28:                                               ; preds = %19
  %29 = sub i64 %26, %12
  %30 = uitofp i64 %29 to double
  %31 = fdiv double 1.000000e+05, %30
  %32 = fptoui double %31 to i32
  %33 = icmp ugt i32 %32, 1000
  br i1 %33, label %35, label %34

34:                                               ; preds = %28
  %spec.store.select = call i32 @llvm.umax.i32(i32 %32, i32 1)
  br label %35

35:                                               ; preds = %28, %19, %34
  %.019 = phi i32 [ %spec.store.select, %34 ], [ 250, %19 ], [ 1000, %28 ]
  %36 = getelementptr inbounds nuw i8, ptr %3, i64 8
  br label %37

37:                                               ; preds = %.critedge, %35
  %.020 = phi i32 [ 0, %35 ], [ %38, %.critedge ]
  %38 = add i32 %.019, %.020
  br label %39

39:                                               ; preds = %37, %44
  %.031 = phi i32 [ 0, %37 ], [ %45, %44 ]
  %40 = load ptr, ptr %13, align 8, !tbaa !35
  %.not.i.i26 = icmp eq ptr %40, null
  br i1 %.not.i.i26, label %41, label %_ZNKSt8functionIFbvEEclEv.exit27

41:                                               ; preds = %39
  call void @_ZSt25__throw_bad_function_callv() #24
  unreachable

_ZNKSt8functionIFbvEEclEv.exit27:                 ; preds = %39
  %42 = load ptr, ptr %16, align 8, !tbaa !32
  %43 = call noundef zeroext i1 %42(ptr noundef nonnull align 8 dereferenceable(32) %1)
  br i1 %43, label %44, label %.loopexit

44:                                               ; preds = %_ZNKSt8functionIFbvEEclEv.exit27
  %45 = add nuw i32 %.031, 1
  %exitcond.not = icmp eq i32 %45, %.019
  br i1 %exitcond.not, label %.critedge, label %39, !llvm.loop !72

.critedge:                                        ; preds = %44
  call void @llvm.lifetime.start.p0(i64 16, ptr nonnull %3) #19
  %46 = call i32 @clock_gettime(i32 noundef 1, ptr noundef nonnull %3) #19
  %47 = load i64, ptr %3, align 8, !tbaa !69
  %48 = mul i64 %47, 1000000
  %49 = load i64, ptr %36, align 8, !tbaa !71
  %50 = sdiv i64 %49, 1000
  call void @llvm.lifetime.end.p0(i64 16, ptr nonnull %3) #19
  %51 = sub i64 %48, %12
  %52 = add i64 %51, %50
  %53 = icmp ugt i64 %52, 1000000
  br i1 %53, label %54, label %37, !llvm.loop !74

54:                                               ; preds = %.critedge
  %55 = trunc i64 %52 to i32
  %56 = getelementptr inbounds nuw i8, ptr %0, i64 4
  store i32 %55, ptr %56, align 4, !tbaa !42
  store i32 %38, ptr %0, align 4, !tbaa !39
  br label %.loopexit

.loopexit:                                        ; preds = %_ZNKSt8functionIFbvEEclEv.exit27, %_ZNKSt8functionIFbvEEclEv.exit, %54
  %.021 = phi i1 [ true, %54 ], [ false, %_ZNKSt8functionIFbvEEclEv.exit ], [ false, %_ZNKSt8functionIFbvEEclEv.exit27 ]
  ret i1 %.021
}